target datalayout = "e-m:e-p270:32:32-p271:32:32-p272:64:64-i64:64-i128:128-f80:128-n8:16:32:64-S128"
target triple = "x86_64-pc-linux-gnu"

%"class.std::vector" = type { %"struct.std::_Vector_base" }
%"struct.std::_Vector_base" = type { %"struct.std::_Vector_base<std::__cxx11::basic_string<char>, std::allocator<std::__cxx11::basic_string<char>>>::_Vector_impl" }
%"struct.std::_Vector_base<std::__cxx11::basic_string<char>, std::allocator<std::__cxx11::basic_string<char>>>::_Vector_impl" = type { %"struct.std::_Vector_base<std::__cxx11::basic_string<char>, std::allocator<std::__cxx11::basic_string<char>>>::_Vector_impl_data" }
%"struct.std::_Vector_base<std::__cxx11::basic_string<char>, std::allocator<std::__cxx11::basic_string<char>>>::_Vector_impl_data" = type { ptr, ptr, ptr }
%"class.std::__cxx11::basic_string" = type { %"struct.std::__cxx11::basic_string<char>::_Alloc_hider", i64, %union.anon }
%"struct.std::__cxx11::basic_string<char>::_Alloc_hider" = type { ptr }
%union.anon = type { i64, [8 x i8] }
%"class.colvar::distance" = type { %"class.colvar::cvc", ptr, ptr, %"class.colvarmodule::rvector" }
%"class.colvar::cvc" = type { %class.colvarparse, %class.colvardeps, %"class.std::__cxx11::basic_string", %"class.std::__cxx11::basic_string", double, i32, double, double, %"class.std::vector.54", i8, %"class.std::vector", %class.colvarvalue, %class.colvarvalue, %class.colvarvalue, %class.colvarvalue, %class.colvarvalue, %class.colvarvalue, double }
%class.colvarparse = type { %class.colvarparams, %"class.std::__cxx11::basic_string", %"class.std::__cxx11::basic_string", %"class.std::__cxx11::list", %"class.std::map.34", %"class.std::__cxx11::list.39", %"class.std::__cxx11::list.39", %"class.std::__cxx11::basic_string" }
%class.colvarparams = type { ptr, %"class.std::map", %"class.std::map.23" }
%"class.std::map" = type { %"class.std::_Rb_tree" }
%"class.std::_Rb_tree" = type { %"struct.std::_Rb_tree<std::__cxx11::basic_string<char>, std::pair<const std::__cxx11::basic_string<char>, const void *>, std::_Select1st<std::pair<const std::__cxx11::basic_string<char>, const void *>>, std::less<std::__cxx11::basic_string<char>>>::_Rb_tree_impl" }
%"struct.std::_Rb_tree<std::__cxx11::basic_string<char>, std::pair<const std::__cxx11::basic_string<char>, const void *>, std::_Select1st<std::pair<const std::__cxx11::basic_string<char>, const void *>>, std::less<std::__cxx11::basic_string<char>>>::_Rb_tree_impl" = type { [8 x i8], %"struct.std::_Rb_tree_header" }
%"struct.std::_Rb_tree_header" = type { %"struct.std::_Rb_tree_node_base", i64 }
%"struct.std::_Rb_tree_node_base" = type { i32, ptr, ptr, ptr }
%"class.std::map.23" = type { %"class.std::_Rb_tree.24" }
%"class.std::_Rb_tree.24" = type { %"struct.std::_Rb_tree<std::__cxx11::basic_string<char>, std::pair<const std::__cxx11::basic_string<char>, const colvarvalue *>, std::_Select1st<std::pair<const std::__cxx11::basic_string<char>, const colvarvalue *>>, std::less<std::__cxx11::basic_string<char>>>::_Rb_tree_impl" }
%"struct.std::_Rb_tree<std::__cxx11::basic_string<char>, std::pair<const std::__cxx11::basic_string<char>, const colvarvalue *>, std::_Select1st<std::pair<const std::__cxx11::basic_string<char>, const colvarvalue *>>, std::less<std::__cxx11::basic_string<char>>>::_Rb_tree_impl" = type { [8 x i8], %"struct.std::_Rb_tree_header" }
%"class.std::__cxx11::list" = type { %"class.std::__cxx11::_List_base" }
%"class.std::__cxx11::_List_base" = type { %"struct.std::__cxx11::_List_base<std::__cxx11::basic_string<char>, std::allocator<std::__cxx11::basic_string<char>>>::_List_impl" }
%"struct.std::__cxx11::_List_base<std::__cxx11::basic_string<char>, std::allocator<std::__cxx11::basic_string<char>>>::_List_impl" = type { %"struct.std::__detail::_List_node_header" }
%"struct.std::__detail::_List_node_header" = type { %"struct.std::__detail::_List_node_base", i64 }
%"struct.std::__detail::_List_node_base" = type { ptr, ptr }
%"class.std::map.34" = type { %"class.std::_Rb_tree.35" }
%"class.std::_Rb_tree.35" = type { %"struct.std::_Rb_tree<std::__cxx11::basic_string<char>, std::pair<const std::__cxx11::basic_string<char>, colvarparse::key_set_mode>, std::_Select1st<std::pair<const std::__cxx11::basic_string<char>, colvarparse::key_set_mode>>, std::less<std::__cxx11::basic_string<char>>>::_Rb_tree_impl" }
%"struct.std::_Rb_tree<std::__cxx11::basic_string<char>, std::pair<const std::__cxx11::basic_string<char>, colvarparse::key_set_mode>, std::_Select1st<std::pair<const std::__cxx11::basic_string<char>, colvarparse::key_set_mode>>, std::less<std::__cxx11::basic_string<char>>>::_Rb_tree_impl" = type { [8 x i8], %"struct.std::_Rb_tree_header" }
%"class.std::__cxx11::list.39" = type { %"class.std::__cxx11::_List_base.40" }
%"class.std::__cxx11::_List_base.40" = type { %"struct.std::__cxx11::_List_base<unsigned long, std::allocator<unsigned long>>::_List_impl" }
%"struct.std::__cxx11::_List_base<unsigned long, std::allocator<unsigned long>>::_List_impl" = type { %"struct.std::__detail::_List_node_header" }
%class.colvardeps = type { ptr, %"class.std::__cxx11::basic_string", i32, %"class.std::vector.44", %"class.std::vector.49", %"class.std::vector.49" }
%"class.std::vector.44" = type { %"struct.std::_Vector_base.45" }
%"struct.std::_Vector_base.45" = type { %"struct.std::_Vector_base<colvardeps::feature_state, std::allocator<colvardeps::feature_state>>::_Vector_impl" }
%"struct.std::_Vector_base<colvardeps::feature_state, std::allocator<colvardeps::feature_state>>::_Vector_impl" = type { %"struct.std::_Vector_base<colvardeps::feature_state, std::allocator<colvardeps::feature_state>>::_Vector_impl_data" }
%"struct.std::_Vector_base<colvardeps::feature_state, std::allocator<colvardeps::feature_state>>::_Vector_impl_data" = type { ptr, ptr, ptr }
%"class.std::vector.49" = type { %"struct.std::_Vector_base.50" }
%"struct.std::_Vector_base.50" = type { %"struct.std::_Vector_base<colvardeps *, std::allocator<colvardeps *>>::_Vector_impl" }
%"struct.std::_Vector_base<colvardeps *, std::allocator<colvardeps *>>::_Vector_impl" = type { %"struct.std::_Vector_base<colvardeps *, std::allocator<colvardeps *>>::_Vector_impl_data" }
%"struct.std::_Vector_base<colvardeps *, std::allocator<colvardeps *>>::_Vector_impl_data" = type { ptr, ptr, ptr }
%"class.std::vector.54" = type { %"struct.std::_Vector_base.55" }
%"struct.std::_Vector_base.55" = type { %"struct.std::_Vector_base<colvarmodule::atom_group *, std::allocator<colvarmodule::atom_group *>>::_Vector_impl" }
%"struct.std::_Vector_base<colvarmodule::atom_group *, std::allocator<colvarmodule::atom_group *>>::_Vector_impl" = type { %"struct.std::_Vector_base<colvarmodule::atom_group *, std::allocator<colvarmodule::atom_group *>>::_Vector_impl_data" }
%"struct.std::_Vector_base<colvarmodule::atom_group *, std::allocator<colvarmodule::atom_group *>>::_Vector_impl_data" = type { ptr, ptr, ptr }
%class.colvarvalue = type { i32, double, %"class.colvarmodule::rvector", %"class.colvarmodule::quaternion", %"class.colvarmodule::vector1d", %"class.std::vector.10", %"class.std::vector.15", %"class.std::vector.15" }
%"class.colvarmodule::quaternion" = type { double, double, double, double }
%"class.colvarmodule::vector1d" = type { %"class.std::vector.5" }
%"class.std::vector.5" = type { %"struct.std::_Vector_base.6" }
%"struct.std::_Vector_base.6" = type { %"struct.std::_Vector_base<double, std::allocator<double>>::_Vector_impl" }
%"struct.std::_Vector_base<double, std::allocator<double>>::_Vector_impl" = type { %"struct.std::_Vector_base<double, std::allocator<double>>::_Vector_impl_data" }
%"struct.std::_Vector_base<double, std::allocator<double>>::_Vector_impl_data" = type { ptr, ptr, ptr }
%"class.std::vector.10" = type { %"struct.std::_Vector_base.11" }
%"struct.std::_Vector_base.11" = type { %"struct.std::_Vector_base<colvarvalue::Type, std::allocator<colvarvalue::Type>>::_Vector_impl" }
%"struct.std::_Vector_base<colvarvalue::Type, std::allocator<colvarvalue::Type>>::_Vector_impl" = type { %"struct.std::_Vector_base<colvarvalue::Type, std::allocator<colvarvalue::Type>>::_Vector_impl_data" }
%"struct.std::_Vector_base<colvarvalue::Type, std::allocator<colvarvalue::Type>>::_Vector_impl_data" = type { ptr, ptr, ptr }
%"class.std::vector.15" = type { %"struct.std::_Vector_base.16" }
%"struct.std::_Vector_base.16" = type { %"struct.std::_Vector_base<int, std::allocator<int>>::_Vector_impl" }
%"struct.std::_Vector_base<int, std::allocator<int>>::_Vector_impl" = type { %"struct.std::_Vector_base<int, std::allocator<int>>::_Vector_impl_data" }
%"struct.std::_Vector_base<int, std::allocator<int>>::_Vector_impl_data" = type { ptr, ptr, ptr }
%"class.colvarmodule::rvector" = type { double, double, double }
%"class.colvarmodule::atom_group" = type { %class.colvarparse, %class.colvardeps, %"class.std::__cxx11::basic_string", %"class.std::__cxx11::basic_string", %"class.std::vector.79", %"class.std::vector.15", %"class.std::vector.15", %"class.std::vector.15", %"class.colvarmodule::rvector", i32, %"class.std::vector.64", i8, %"class.colvarmodule::rotation", ptr, i8, %"class.std::vector.64", %"class.colvarmodule::rvector", ptr, double, double, i8, %"class.colvarmodule::rvector", %"class.colvarmodule::rvector", %"class.std::vector.64", %"class.colvarmodule::rvector", %"class.colvarmodule::rvector", %"class.colvarmodule::rvector", %"class.std::vector.64" }
%"class.std::vector.79" = type { %"struct.std::_Vector_base.80" }
%"struct.std::_Vector_base.80" = type { %"struct.std::_Vector_base<colvarmodule::atom, std::allocator<colvarmodule::atom>>::_Vector_impl" }
%"struct.std::_Vector_base<colvarmodule::atom, std::allocator<colvarmodule::atom>>::_Vector_impl" = type { %"struct.std::_Vector_base<colvarmodule::atom, std::allocator<colvarmodule::atom>>::_Vector_impl_data" }
%"struct.std::_Vector_base<colvarmodule::atom, std::allocator<colvarmodule::atom>>::_Vector_impl_data" = type { ptr, ptr, ptr }
%"class.colvarmodule::rotation" = type { %"class.colvarmodule::rmatrix", [4 x [4 x double]], [4 x double], [4 x [4 x double]], [4 x [4 x double]], i8, %"class.colvarmodule::quaternion", %"class.colvarmodule::quaternion", ptr }
%"class.colvarmodule::rmatrix" = type { double, double, double, double, double, double, double, double, double }
%"class.std::vector.64" = type { %"struct.std::_Vector_base.65" }
%"struct.std::_Vector_base.65" = type { %"struct.std::_Vector_base<colvarmodule::rvector, std::allocator<colvarmodule::rvector>>::_Vector_impl" }
%"struct.std::_Vector_base<colvarmodule::rvector, std::allocator<colvarmodule::rvector>>::_Vector_impl" = type { %"struct.std::_Vector_base<colvarmodule::rvector, std::allocator<colvarmodule::rvector>>::_Vector_impl_data" }
%"struct.std::_Vector_base<colvarmodule::rvector, std::allocator<colvarmodule::rvector>>::_Vector_impl_data" = type { ptr, ptr, ptr }
%"class.colvar::groupcoordnum" = type <{ %"class.colvar::distance", double, %"class.colvarmodule::rvector", i8, [3 x i8], i32, i32, [4 x i8] }>
%"class.colvarmodule::atom" = type { i32, i32, double, double, %"class.colvarmodule::rvector", %"class.colvarmodule::rvector", %"class.colvarmodule::rvector", %"class.colvarmodule::rvector" }

; Function Attrs: inlinehint mustprogress nounwind uwtable
define linkonce_odr void @_ZNK12colvarmodule10atom_group14center_of_massEv(ptr dead_on_unwind noalias writable sret(%"class.colvarmodule::rvector") align 8 %0, ptr noundef nonnull align 8 dereferenceable(1496) %1) #8 comdat align 2 {
  %3 = alloca ptr, align 8
  store ptr %1, ptr %3, align 8, !tbaa !125
  %4 = load ptr, ptr %3, align 8
  %5 = getelementptr inbounds nuw %"class.colvarmodule::atom_group", ptr %4, i32 0, i32 24
  call void @llvm.memcpy.p0.p0.i64(ptr align 8 %0, ptr align 8 %5, i64 24, i1 false), !tbaa.struct !117
  ret void
}

; Function Attrs: mustprogress uwtable
define void @_ZN6colvar13groupcoordnum14calc_gradientsEv(ptr noundef nonnull align 8 dereferenceable(1692) %0) unnamed_addr #2 align 2 personality ptr @__gxx_personality_v0 {
  %2 = alloca ptr, align 8
  %3 = alloca %"class.colvarmodule::atom", align 8
  %4 = alloca %"class.colvarmodule::atom", align 8
  %5 = alloca ptr, align 8
  %6 = alloca i32, align 4
  %7 = alloca %"class.colvarmodule::rvector", align 8
  %8 = alloca %"class.colvarmodule::rvector", align 8
  %9 = alloca i32, align 4
  %10 = alloca i32, align 4
  store ptr %0, ptr %2, align 8, !tbaa !4
  %11 = load ptr, ptr %2, align 8
  call void @llvm.lifetime.start.p0(i64 120, ptr %3) #16
  call void @_ZN12colvarmodule4atomC1Ev(ptr noundef nonnull align 8 dereferenceable(120) %3)
  call void @llvm.lifetime.start.p0(i64 120, ptr %4) #16
  invoke void @_ZN12colvarmodule4atomC1Ev(ptr noundef nonnull align 8 dereferenceable(120) %4)
          to label %12 unwind label %31

12:                                               ; preds = %1
  call void @llvm.lifetime.start.p0(i64 24, ptr %7) #16
  %13 = getelementptr inbounds nuw %"class.colvar::distance", ptr %11, i32 0, i32 1
  %14 = load ptr, ptr %13, align 8, !tbaa !13
  call void @_ZNK12colvarmodule10atom_group14center_of_massEv(ptr dead_on_unwind writable sret(%"class.colvarmodule::rvector") align 8 %7, ptr noundef nonnull align 8 dereferenceable(1496) %14)
  %15 = getelementptr inbounds nuw %"class.colvarmodule::atom", ptr %3, i32 0, i32 4
  call void @llvm.memcpy.p0.p0.i64(ptr align 8 %15, ptr align 8 %7, i64 24, i1 false), !tbaa.struct !117
  call void @llvm.lifetime.end.p0(i64 24, ptr %7) #16
  call void @llvm.lifetime.start.p0(i64 24, ptr %8) #16
  %16 = getelementptr inbounds nuw %"class.colvar::distance", ptr %11, i32 0, i32 2
  %17 = load ptr, ptr %16, align 8, !tbaa !106
  call void @_ZNK12colvarmodule10atom_group14center_of_massEv(ptr dead_on_unwind writable sret(%"class.colvarmodule::rvector") align 8 %8, ptr noundef nonnull align 8 dereferenceable(1496) %17)
  %18 = getelementptr inbounds nuw %"class.colvarmodule::atom", ptr %4, i32 0, i32 4
  call void @llvm.memcpy.p0.p0.i64(ptr align 8 %18, ptr align 8 %8, i64 24, i1 false), !tbaa.struct !117
  call void @llvm.lifetime.end.p0(i64 24, ptr %8) #16
  %19 = getelementptr inbounds nuw %"class.colvar::groupcoordnum", ptr %11, i32 0, i32 3
  %20 = load i8, ptr %19, align 8, !tbaa !108, !range !104, !noundef !105
  %21 = trunc i8 %20 to i1
  br i1 %21, label %22, label %39

22:                                               ; preds = %12
  call void @llvm.lifetime.start.p0(i64 4, ptr %9) #16
  store i32 257, ptr %9, align 4, !tbaa !11
  %23 = getelementptr inbounds nuw %"class.colvar::groupcoordnum", ptr %11, i32 0, i32 1
  %24 = getelementptr inbounds nuw %"class.colvar::groupcoordnum", ptr %11, i32 0, i32 2
  %25 = getelementptr inbounds nuw %"class.colvar::groupcoordnum", ptr %11, i32 0, i32 5
  %26 = load i32, ptr %25, align 4, !tbaa !113
  %27 = getelementptr inbounds nuw %"class.colvar::groupcoordnum", ptr %11, i32 0, i32 6
  %28 = load i32, ptr %27, align 8, !tbaa !114
  %29 = invoke noundef double @_ZN6colvar8coordnum18switching_functionILi257EEEdRKdRKN12colvarmodule7rvectorEiiRNS4_4atomES9_PPbd(ptr noundef nonnull align 8 dereferenceable(8) %23, ptr noundef nonnull align 8 dereferenceable(24) %24, i32 noundef %26, i32 noundef %28, ptr noundef nonnull align 8 dereferenceable(120) %3, ptr noundef nonnull align 8 dereferenceable(120) %4, ptr noundef null, double noundef 0.000000e+00)
          to label %30 unwind label %35

30:                                               ; preds = %22
  call void @llvm.lifetime.end.p0(i64 4, ptr %9) #16
  br label %52

31:                                               ; preds = %1
  %32 = landingpad { ptr, i32 }
          cleanup
  %33 = extractvalue { ptr, i32 } %32, 0
  store ptr %33, ptr %5, align 8
  %34 = extractvalue { ptr, i32 } %32, 1
  store i32 %34, ptr %6, align 4
  br label %66

35:                                               ; preds = %22
  %36 = landingpad { ptr, i32 }
          cleanup
  %37 = extractvalue { ptr, i32 } %36, 0
  store ptr %37, ptr %5, align 8
  %38 = extractvalue { ptr, i32 } %36, 1
  store i32 %38, ptr %6, align 4
  call void @llvm.lifetime.end.p0(i64 4, ptr %9) #16
  br label %65

39:                                               ; preds = %12
  call void @llvm.lifetime.start.p0(i64 4, ptr %10) #16
  store i32 1, ptr %10, align 4, !tbaa !11
  %40 = getelementptr inbounds nuw %"class.colvar::groupcoordnum", ptr %11, i32 0, i32 1
  %41 = getelementptr inbounds nuw %"class.colvar::groupcoordnum", ptr %11, i32 0, i32 2
  %42 = getelementptr inbounds nuw %"class.colvar::groupcoordnum", ptr %11, i32 0, i32 5
  %43 = load i32, ptr %42, align 4, !tbaa !113
  %44 = getelementptr inbounds nuw %"class.colvar::groupcoordnum", ptr %11, i32 0, i32 6
  %45 = load i32, ptr %44, align 8, !tbaa !114
  %46 = invoke noundef double @_ZN6colvar8coordnum18switching_functionILi1EEEdRKdRKN12colvarmodule7rvectorEiiRNS4_4atomES9_PPbd(ptr noundef nonnull align 8 dereferenceable(8) %40, ptr noundef nonnull align 8 dereferenceable(24) %41, i32 noundef %43, i32 noundef %45, ptr noundef nonnull align 8 dereferenceable(120) %3, ptr noundef nonnull align 8 dereferenceable(120) %4, ptr noundef null, double noundef 0.000000e+00)
          to label %47 unwind label %48

47:                                               ; preds = %39
  call void @llvm.lifetime.end.p0(i64 4, ptr %10) #16
  br label %52

48:                                               ; preds = %39
  %49 = landingpad { ptr, i32 }
          cleanup
  %50 = extractvalue { ptr, i32 } %49, 0
  store ptr %50, ptr %5, align 8
  %51 = extractvalue { ptr, i32 } %49, 1
  store i32 %51, ptr %6, align 4
  call void @llvm.lifetime.end.p0(i64 4, ptr %10) #16
  br label %65

52:                                               ; preds = %47, %30
  %53 = getelementptr inbounds nuw %"class.colvar::distance", ptr %11, i32 0, i32 1
  %54 = load ptr, ptr %53, align 8, !tbaa !13
  %55 = getelementptr inbounds nuw %"class.colvarmodule::atom", ptr %3, i32 0, i32 7
  invoke void @_ZN12colvarmodule10atom_group21set_weighted_gradientERKNS_7rvectorE(ptr noundef nonnull align 8 dereferenceable(1496) %54, ptr noundef nonnull align 8 dereferenceable(24) %55)
          to label %56 unwind label %61

56:                                               ; preds = %52
  %57 = getelementptr inbounds nuw %"class.colvar::distance", ptr %11, i32 0, i32 2
  %58 = load ptr, ptr %57, align 8, !tbaa !106
  %59 = getelementptr inbounds nuw %"class.colvarmodule::atom", ptr %4, i32 0, i32 7
  invoke void @_ZN12colvarmodule10atom_group21set_weighted_gradientERKNS_7rvectorE(ptr noundef nonnull align 8 dereferenceable(1496) %58, ptr noundef nonnull align 8 dereferenceable(24) %59)
          to label %60 unwind label %61

60:                                               ; preds = %56
  call void @_ZN12colvarmodule4atomD1Ev(ptr noundef nonnull align 8 dereferenceable(120) %4) #16
  call void @llvm.lifetime.end.p0(i64 120, ptr %4) #16
  call void @_ZN12colvarmodule4atomD1Ev(ptr noundef nonnull align 8 dereferenceable(120) %3) #16
  call void @llvm.lifetime.end.p0(i64 120, ptr %3) #16
  ret void

61:                                               ; preds = %56, %52
  %62 = landingpad { ptr, i32 }
          cleanup
  %63 = extractvalue { ptr, i32 } %62, 0
  store ptr %63, ptr %5, align 8
  %64 = extractvalue { ptr, i32 } %62, 1
  store i32 %64, ptr %6, align 4
  br label %65

65:                                               ; preds = %61, %48, %35
  call void @_ZN12colvarmodule4atomD1Ev(ptr noundef nonnull align 8 dereferenceable(120) %4) #16
  br label %66

66:                                               ; preds = %65, %31
  call void @llvm.lifetime.end.p0(i64 120, ptr %4) #16
  call void @_ZN12colvarmodule4atomD1Ev(ptr noundef nonnull align 8 dereferenceable(120) %3) #16
  call void @llvm.lifetime.end.p0(i64 120, ptr %3) #16
  br label %67

67:                                               ; preds = %66
  %68 = load ptr, ptr %5, align 8
  %69 = load i32, ptr %6, align 4
  %70 = insertvalue { ptr, i32 } poison, ptr %68, 0
  %71 = insertvalue { ptr, i32 } %70, i32 %69, 1
  resume { ptr, i32 } %71
}