; Function Attrs: mustprogress uwtable
define void @_ZN6colvar13groupcoordnum14calc_gradientsEv(ptr noundef nonnull align 8 dereferenceable(1692) %0) unnamed_addr #2 align 2 personality ptr @__gxx_personality_v0 {
  %2 = alloca %"class.colvarmodule::atom", align 8
  %3 = alloca %"class.colvarmodule::atom", align 8
  call void @llvm.lifetime.start.p0(i64 120, ptr nonnull %2) #17
  call void @_ZN12colvarmodule4atomC1Ev(ptr noundef nonnull align 8 dereferenceable(120) %2)
  call void @llvm.lifetime.start.p0(i64 120, ptr nonnull %3) #17
  invoke void @_ZN12colvarmodule4atomC1Ev(ptr noundef nonnull align 8 dereferenceable(120) %3)
          to label %4 unwind label %24

4:                                                ; preds = %1
  %5 = getelementptr inbounds nuw i8, ptr %0, i64 1608
  %6 = load ptr, ptr %5, align 8, !tbaa !4
  %7 = getelementptr inbounds nuw i8, ptr %6, i64 1400
  %8 = getelementptr inbounds nuw i8, ptr %2, i64 24
  call void @llvm.memcpy.p0.p0.i64(ptr noundef nonnull align 8 dereferenceable(24) %8, ptr noundef nonnull align 8 dereferenceable(24) %7, i64 24, i1 false)
  %9 = getelementptr inbounds nuw i8, ptr %0, i64 1616
  %10 = load ptr, ptr %9, align 8, !tbaa !102
  %11 = getelementptr inbounds nuw i8, ptr %10, i64 1400
  %12 = getelementptr inbounds nuw i8, ptr %3, i64 24
  call void @llvm.memcpy.p0.p0.i64(ptr noundef nonnull align 8 dereferenceable(24) %12, ptr noundef nonnull align 8 dereferenceable(24) %11, i64 24, i1 false)
  %13 = getelementptr inbounds nuw i8, ptr %0, i64 1680
  %14 = load i8, ptr %13, align 8, !tbaa !108, !range !100, !noundef !101
  %15 = trunc nuw i8 %14 to i1
  %16 = getelementptr inbounds nuw i8, ptr %0, i64 1648
  %17 = getelementptr inbounds nuw i8, ptr %0, i64 1656
  %18 = getelementptr inbounds nuw i8, ptr %0, i64 1684
  %19 = load i32, ptr %18, align 4, !tbaa !113
  %20 = getelementptr inbounds nuw i8, ptr %0, i64 1688
  %21 = load i32, ptr %20, align 8, !tbaa !114
  br i1 %15, label %22, label %28

22:                                               ; preds = %4
  %23 = invoke noundef double @_ZN6colvar8coordnum18switching_functionILi257EEEdRKdRKN12colvarmodule7rvectorEiiRNS4_4atomES9_PPbd(ptr noundef nonnull align 8 dereferenceable(8) %16, ptr noundef nonnull align 8 dereferenceable(24) %17, i32 noundef %19, i32 noundef %21, ptr noundef nonnull align 8 dereferenceable(120) %2, ptr noundef nonnull align 8 dereferenceable(120) %3, ptr noundef null, double noundef 0.000000e+00)
          to label %32 unwind label %26

24:                                               ; preds = %1
  %25 = landingpad { ptr, i32 }
          cleanup
  br label %42

26:                                               ; preds = %22
  %27 = landingpad { ptr, i32 }
          cleanup
  br label %41

28:                                               ; preds = %4
  %29 = invoke noundef double @_ZN6colvar8coordnum18switching_functionILi1EEEdRKdRKN12colvarmodule7rvectorEiiRNS4_4atomES9_PPbd(ptr noundef nonnull align 8 dereferenceable(8) %16, ptr noundef nonnull align 8 dereferenceable(24) %17, i32 noundef %19, i32 noundef %21, ptr noundef nonnull align 8 dereferenceable(120) %2, ptr noundef nonnull align 8 dereferenceable(120) %3, ptr noundef null, double noundef 0.000000e+00)
          to label %32 unwind label %30

30:                                               ; preds = %28
  %31 = landingpad { ptr, i32 }
          cleanup
  br label %41

32:                                               ; preds = %28, %22
  %33 = load ptr, ptr %5, align 8, !tbaa !4
  %34 = getelementptr inbounds nuw i8, ptr %2, i64 96
  invoke void @_ZN12colvarmodule10atom_group21set_weighted_gradientERKNS_7rvectorE(ptr noundef nonnull align 8 dereferenceable(1496) %33, ptr noundef nonnull align 8 dereferenceable(24) %34)
          to label %35 unwind label %39

35:                                               ; preds = %32
  %36 = load ptr, ptr %9, align 8, !tbaa !102
  %37 = getelementptr inbounds nuw i8, ptr %3, i64 96
  invoke void @_ZN12colvarmodule10atom_group21set_weighted_gradientERKNS_7rvectorE(ptr noundef nonnull align 8 dereferenceable(1496) %36, ptr noundef nonnull align 8 dereferenceable(24) %37)
          to label %38 unwind label %39

38:                                               ; preds = %35
  call void @_ZN12colvarmodule4atomD1Ev(ptr noundef nonnull align 8 dereferenceable(120) %3) #17
  call void @llvm.lifetime.end.p0(i64 120, ptr nonnull %3) #17
  call void @_ZN12colvarmodule4atomD1Ev(ptr noundef nonnull align 8 dereferenceable(120) %2) #17
  call void @llvm.lifetime.end.p0(i64 120, ptr nonnull %2) #17
  ret void

39:                                               ; preds = %35, %32
  %40 = landingpad { ptr, i32 }
          cleanup
  br label %41

41:                                               ; preds = %39, %30, %26
  %.pn = phi { ptr, i32 } [ %40, %39 ], [ %27, %26 ], [ %31, %30 ]
  call void @_ZN12colvarmodule4atomD1Ev(ptr noundef nonnull align 8 dereferenceable(120) %3) #17
  br label %42

42:                                               ; preds = %41, %24
  %.pn.pn = phi { ptr, i32 } [ %.pn, %41 ], [ %25, %24 ]
  call void @llvm.lifetime.end.p0(i64 120, ptr nonnull %3) #17
  call void @_ZN12colvarmodule4atomD1Ev(ptr noundef nonnull align 8 dereferenceable(120) %2) #17
  call void @llvm.lifetime.end.p0(i64 120, ptr nonnull %2) #17
  resume { ptr, i32 } %.pn.pn
}